; Function Attrs: mustprogress uwtable
define hidden void @_ZN19OpenColorIO_v2_5dev18GroupTransformImplC2Ev(ptr noundef nonnull align 8 dereferenceable(160) initializes((0, 8)) %0) unnamed_addr #0 align 2 personality ptr @__gxx_personality_v0 {
  store ptr getelementptr inbounds nuw inrange(-16, 120) (i8, ptr @_ZTVN19OpenColorIO_v2_5dev18GroupTransformImplE, i64 16), ptr %0, align 8, !tbaa !3
  %2 = getelementptr inbounds nuw i8, ptr %0, i64 8
  tail call void @_ZN19OpenColorIO_v2_5dev18FormatMetadataImplC1Ev(ptr noundef nonnull align 8 dereferenceable(120) %2)
  %3 = getelementptr inbounds nuw i8, ptr %0, i64 128
  store i32 0, ptr %3, align 8, !tbaa !6
  %4 = getelementptr inbounds nuw i8, ptr %0, i64 136
  tail call void @llvm.memset.p0.i64(ptr noundef nonnull align 8 dereferenceable(24) %4, i8 0, i64 24, i1 false)
  ret void
}